; ModuleID = '45/718.c'
source_filename = "45/718.c"
target datalayout = "e-m:e-p270:32:32-p271:32:32-p272:64:64-i64:64-f80:128-n8:16:32:64-S128"
target triple = "x86_64-pc-linux-gnu"

@.str = private unnamed_addr constant [3 x i8] c"%d\00", align 1

; Function Attrs: noinline nounwind uwtable
define dso_local i32 @main() #0 {
  %1 = alloca i32, align 4
  %2 = alloca [50 x i8], align 16
  %3 = alloca [50 x i8], align 16
  %4 = alloca [100 x i8], align 16
  %5 = alloca i32, align 4
  %6 = alloca i32, align 4
  %7 = alloca i32, align 4
  %8 = alloca i32, align 4
  %9 = alloca i32, align 4
  %10 = alloca i32, align 4
  store i32 0, i32* %1, align 4
  store i32 0, i32* %5, align 4
  store i32 0, i32* %10, align 4
  %11 = getelementptr inbounds [100 x i8], [100 x i8]* %4, i64 0, i64 0
  %12 = call i32 (i8*, ...) bitcast (i32 (...)* @gets to i32 (i8*, ...)*)(i8* %11)
  br label %13

13:                                               ; preds = %20, %0
  %14 = load i32, i32* %5, align 4
  %15 = sext i32 %14 to i64
  %16 = getelementptr inbounds [100 x i8], [100 x i8]* %4, i64 0, i64 %15
  %17 = load i8, i8* %16, align 1
  %18 = sext i8 %17 to i32
  %19 = icmp ne i32 %18, 32
  br i1 %19, label %20, label %30

20:                                               ; preds = %13
  %21 = load i32, i32* %5, align 4
  %22 = sext i32 %21 to i64
  %23 = getelementptr inbounds [100 x i8], [100 x i8]* %4, i64 0, i64 %22
  %24 = load i8, i8* %23, align 1
  %25 = load i32, i32* %5, align 4
  %26 = sext i32 %25 to i64
  %27 = getelementptr inbounds [50 x i8], [50 x i8]* %2, i64 0, i64 %26
  store i8 %24, i8* %27, align 1
  %28 = load i32, i32* %5, align 4
  %29 = add nsw i32 %28, 1
  store i32 %29, i32* %5, align 4
  br label %13

30:                                               ; preds = %13
  %31 = load i32, i32* %5, align 4
  %32 = add nsw i32 1, %31
  store i32 %32, i32* %6, align 4
  br label %33

33:                                               ; preds = %50, %30
  %34 = load i32, i32* %6, align 4
  %35 = sext i32 %34 to i64
  %36 = getelementptr inbounds [100 x i8], [100 x i8]* %4, i64 0, i64 0
  %37 = call i64 @strlen(i8* %36) #3
  %38 = icmp ult i64 %35, %37
  br i1 %38, label %39, label %53

39:                                               ; preds = %33
  %40 = load i32, i32* %6, align 4
  %41 = sext i32 %40 to i64
  %42 = getelementptr inbounds [100 x i8], [100 x i8]* %4, i64 0, i64 %41
  %43 = load i8, i8* %42, align 1
  %44 = load i32, i32* %6, align 4
  %45 = sub nsw i32 %44, 1
  %46 = load i32, i32* %5, align 4
  %47 = sub nsw i32 %45, %46
  %48 = sext i32 %47 to i64
  %49 = getelementptr inbounds [50 x i8], [50 x i8]* %3, i64 0, i64 %48
  store i8 %43, i8* %49, align 1
  br label %50

50:                                               ; preds = %39
  %51 = load i32, i32* %6, align 4
  %52 = add nsw i32 %51, 1
  store i32 %52, i32* %6, align 4
  br label %33

53:                                               ; preds = %33
  %54 = getelementptr inbounds [50 x i8], [50 x i8]* %3, i64 0, i64 0
  %55 = call i64 @strlen(i8* %54) #3
  %56 = trunc i64 %55 to i32
  store i32 %56, i32* %9, align 4
  %57 = getelementptr inbounds [50 x i8], [50 x i8]* %2, i64 0, i64 0
  %58 = call i64 @strlen(i8* %57) #3
  %59 = trunc i64 %58 to i32
  store i32 %59, i32* %8, align 4
  store i32 0, i32* %5, align 4
  br label %60

60:                                               ; preds = %114, %53
  %61 = load i32, i32* %5, align 4
  %62 = load i32, i32* %9, align 4
  %63 = icmp slt i32 %61, %62
  br i1 %63, label %64, label %117

64:                                               ; preds = %60
  %65 = load i32, i32* %5, align 4
  %66 = sext i32 %65 to i64
  %67 = getelementptr inbounds [50 x i8], [50 x i8]* %3, i64 0, i64 %66
  %68 = load i8, i8* %67, align 1
  %69 = sext i8 %68 to i32
  %70 = getelementptr inbounds [50 x i8], [50 x i8]* %2, i64 0, i64 0
  %71 = load i8, i8* %70, align 16
  %72 = sext i8 %71 to i32
  %73 = icmp ne i32 %69, %72
  br i1 %73, label %74, label %75

74:                                               ; preds = %64
  br label %114

75:                                               ; preds = %64
  %76 = load i32, i32* %5, align 4
  store i32 %76, i32* %7, align 4
  %77 = load i32, i32* %5, align 4
  store i32 %77, i32* %6, align 4
  br label %78

78:                                               ; preds = %102, %75
  %79 = load i32, i32* %6, align 4
  %80 = load i32, i32* %5, align 4
  %81 = load i32, i32* %8, align 4
  %82 = add nsw i32 %80, %81
  %83 = icmp slt i32 %79, %82
  br i1 %83, label %84, label %105

84:                                               ; preds = %78
  %85 = load i32, i32* %6, align 4
  %86 = sext i32 %85 to i64
  %87 = getelementptr inbounds [50 x i8], [50 x i8]* %3, i64 0, i64 %86
  %88 = load i8, i8* %87, align 1
  %89 = sext i8 %88 to i32
  %90 = load i32, i32* %6, align 4
  %91 = load i32, i32* %7, align 4
  %92 = sub nsw i32 %90, %91
  %93 = sext i32 %92 to i64
  %94 = getelementptr inbounds [50 x i8], [50 x i8]* %2, i64 0, i64 %93
  %95 = load i8, i8* %94, align 1
  %96 = sext i8 %95 to i32
  %97 = icmp eq i32 %89, %96
  br i1 %97, label %98, label %101

98:                                               ; preds = %84
  %99 = load i32, i32* %10, align 4
  %100 = add nsw i32 %99, 1
  store i32 %100, i32* %10, align 4
  br label %101

101:                                              ; preds = %98, %84
  br label %102

102:                                              ; preds = %101
  %103 = load i32, i32* %6, align 4
  %104 = add nsw i32 %103, 1
  store i32 %104, i32* %6, align 4
  br label %78

105:                                              ; preds = %78
  %106 = load i32, i32* %10, align 4
  %107 = load i32, i32* %8, align 4
  %108 = icmp eq i32 %106, %107
  br i1 %108, label %109, label %112

109:                                              ; preds = %105
  %110 = load i32, i32* %7, align 4
  %111 = call i32 (i8*, ...) @printf(i8* getelementptr inbounds ([3 x i8], [3 x i8]* @.str, i64 0, i64 0), i32 %110)
  br label %112

112:                                              ; preds = %109, %105
  br label %113

113:                                              ; preds = %112
  br label %114

114:                                              ; preds = %113, %74
  %115 = load i32, i32* %5, align 4
  %116 = add nsw i32 %115, 1
  store i32 %116, i32* %5, align 4
  br label %60

117:                                              ; preds = %60
  ret i32 0
}

declare dso_local i32 @gets(...) #1

; Function Attrs: nounwind readonly
declare dso_local i64 @strlen(i8*) #2

declare dso_local i32 @printf(i8*, ...) #1


!llvm.module.flags = !{!0}
!llvm.ident = !{!1}

!0 = !{i32 1, !"wchar_size", i32 4}
!1 = !{!"clang version 10.0.0-4ubuntu1 "}
